Certificate:
    Data:
        Version: 3 (0x2)
        Serial Number: 7 (0x7)
    Signature Algorithm: sha1WithRSAEncryption
        Issuer: C=SI, ST=Slovenia, L=Ljubljana, O=XLAB, CN=XLAB CA
        Validity
            Not Before: Mar 20 15:59:27 2013 GMT
            Not After : Mar 20 15:59:27 2014 GMT
        Subject: C=SI, ST=Slovenia, O=XLAB, CN=oauth-python-client-demo
        Subject Public Key Info:
            Public Key Algorithm: rsaEncryption
                Public-Key: (2048 bit)
                Modulus:
                    00:e6:1f:ae:e0:b9:2a:2a:27:b2:bb:72:16:7a:91:
                    e3:d0:62:1b:7b:e4:9e:09:87:cf:70:77:23:1c:51:
                    b6:2d:2a:e4:3f:c9:7a:ca:d5:9d:a0:80:dd:3c:bf:
                    47:43:4e:bc:6c:b9:16:a4:c9:6c:7d:a0:23:30:49:
                    6d:26:ea:74:99:04:a5:39:bf:00:dc:69:3c:a9:0d:
                    56:1b:ba:d6:df:68:c3:b7:11:4c:de:98:ce:00:be:
                    7d:26:02:4f:6e:38:07:60:b0:b7:3f:8d:fd:87:d2:
                    02:3a:ba:c8:6c:1b:67:12:3c:07:9d:e0:07:9c:49:
                    a4:17:61:87:1c:8a:a1:9f:8c:6a:62:21:ec:2a:6d:
                    9a:5f:4b:9f:c0:ab:d5:f1:2a:1b:cc:35:af:24:73:
                    5b:e8:bb:67:9f:de:ac:12:07:72:4e:b7:ed:88:57:
                    c9:86:90:29:d4:00:19:db:5d:83:99:9e:fb:5d:2e:
                    a3:41:4e:b5:3e:5f:dd:0b:29:df:6b:87:ba:d4:d2:
                    65:b3:bc:27:6b:e7:20:3f:6a:cf:95:33:3f:0c:c9:
                    4c:26:ac:07:1c:93:d8:74:5e:27:1e:dd:c3:16:cc:
                    65:2a:4d:03:88:61:c1:d8:ad:b3:f2:21:31:db:fa:
                    27:11:77:52:1a:5f:da:b4:54:fc:03:06:f0:09:80:
                    2e:25
                Exponent: 65537 (0x10001)
        X509v3 extensions:
            X509v3 Basic Constraints: 
                CA:FALSE
            Netscape Comment: 
                OpenSSL Generated Certificate
            X509v3 Subject Key Identifier: 
                B1:AC:27:EF:7E:8B:20:CA:71:AF:EF:FF:54:B7:DE:CC:60:84:B3:19
            X509v3 Authority Key Identifier: 
                keyid:3E:C2:B4:A1:8D:E1:84:90:EF:EB:B6:13:2C:A4:97:25:9B:D4:9D:F3

    Signature Algorithm: sha1WithRSAEncryption
         21:31:db:31:6f:71:cd:b5:bd:be:e3:96:f6:a6:26:ec:39:0f:
         cf:de:6c:f0:1e:51:a9:0c:39:ca:c3:1e:5e:54:b4:45:3e:45:
         b9:96:9b:1b:1c:af:b8:6a:41:65:9f:39:05:38:02:cb:1d:27:
         0f:64:05:77:23:fc:a2:93:2d:bc:f7:28:29:43:c4:3d:e3:80:
         ba:e0:81:1f:59:75:f4:a1:34:5d:6d:95:61:35:54:8f:8d:eb:
         92:ce:95:59:88:c1:01:f9:32:9b:c4:9c:da:7b:28:05:f2:b8:
         5d:97:4f:ce:53:83:66:6e:3d:32:d8:95:bc:19:71:30:47:0c:
         8d:9c
-----BEGIN CERTIFICATE-----
MIIDHDCCAoWgAwIBAgIBBzANBgkqhkiG9w0BAQUFADBVMQswCQYDVQQGEwJTSTER
MA8GA1UECAwIU2xvdmVuaWExEjAQBgNVBAcMCUxqdWJsamFuYTENMAsGA1UECgwE
WExBQjEQMA4GA1UEAwwHWExBQiBDQTAeFw0xMzAzMjAxNTU5MjdaFw0xNDAzMjAx
NTU5MjdaMFIxCzAJBgNVBAYTAlNJMREwDwYDVQQIDAhTbG92ZW5pYTENMAsGA1UE
CgwEWExBQjEhMB8GA1UEAwwYb2F1dGgtcHl0aG9uLWNsaWVudC1kZW1vMIIBIjAN
BgkqhkiG9w0BAQEFAAOCAQ8AMIIBCgKCAQEA5h+u4LkqKieyu3IWepHj0GIbe+Se
CYfPcHcjHFG2LSrkP8l6ytWdoIDdPL9HQ068bLkWpMlsfaAjMEltJup0mQSlOb8A
3Gk8qQ1WG7rW32jDtxFM3pjOAL59JgJPbjgHYLC3P439h9ICOrrIbBtnEjwHneAH
nEmkF2GHHIqhn4xqYiHsKm2aX0ufwKvV8SobzDWvJHNb6Ltnn96sEgdyTrftiFfJ
hpAp1AAZ212DmZ77XS6jQU61Pl/dCynfa4e61NJls7wna+cgP2rPlTM/DMlMJqwH
HJPYdF4nHt3DFsxlKk0DiGHB2K2z8iEx2/onEXdSGl/atFT8AwbwCYAuJQIDAQAB
o3sweTAJBgNVHRMEAjAAMCwGCWCGSAGG+EIBDQQfFh1PcGVuU1NMIEdlbmVyYXRl
ZCBDZXJ0aWZpY2F0ZTAdBgNVHQ4EFgQUsawn736LIMpxr+//VLfezGCEsxkwHwYD
VR0jBBgwFoAUPsK0oY3hhJDv67YTLKSXJZvUnfMwDQYJKoZIhvcNAQEFBQADgYEA
ITHbMW9xzbW9vuOW9qYm7DkPz95s8B5RqQw5ysMeXlS0RT5FuZabGxyvuGpBZZ85
BTgCyx0nD2QFdyP8opMtvPcoKUPEPeOAuuCBH1l19KE0XW2VYTVUj43rks6VWYjB
Afkym8Sc2nsoBfK4XZdPzlODZm49MtiVvBlxMEcMjZw=
-----END CERTIFICATE-----
